Certificate:
    Data:
        Version: 3 (0x2)
        Serial Number: 1 (0x1)
    Signature Algorithm: sha256WithRSAEncryption
        Issuer: CN=QUIC Server Root CA
        Validity
            Not Before: Nov  7 14:32:00 2017 GMT
            Not After : Nov 10 14:32:00 2017 GMT
        Subject: C=US, ST=California, L=Mountain View, O=QUIC Server, CN=127.0.0.1
        Subject Public Key Info:
            Public Key Algorithm: rsaEncryption
                Public-Key: (2048 bit)
                Modulus:
                    00:e0:43:2e:6b:4b:04:aa:78:df:fc:90:e7:a2:cd:
                    5c:dc:ef:2e:d3:a8:31:85:da:4d:c5:66:32:69:a5:
                    22:88:08:02:b1:12:ee:1a:83:3a:9b:00:25:fc:a1:
                    4e:07:3a:6d:e6:c9:34:f7:84:d1:5c:b2:f4:f5:d8:
                    c3:64:e1:1a:a1:51:5c:88:62:94:66:97:27:a3:9f:
                    ba:28:c9:29:ee:20:59:62:e1:32:99:af:74:dd:de:
                    fa:41:4f:10:03:c6:ea:62:e7:5a:ee:19:ee:1c:48:
                    c8:1f:d7:c4:13:21:a3:82:1f:30:2c:b3:21:01:0b:
                    9d:d3:8d:a5:c2:26:73:b5:a8:25:42:8a:c2:44:29:
                    62:dc:31:9e:48:e7:ca:28:fc:91:1d:5d:fe:27:02:
                    ec:01:ac:9e:b6:0f:1a:55:b6:02:cc:90:56:33:7a:
                    88:4c:56:55:c0:9f:19:89:52:f5:8e:e2:ed:89:1a:
                    a6:46:25:b2:3e:f4:66:8a:47:4d:57:ab:45:9d:7a:
                    4e:e8:d7:8c:e5:4f:11:61:7b:79:2a:e6:09:c5:2b:
                    76:41:40:ba:aa:44:65:8c:51:4c:e4:63:c9:4e:cb:
                    7e:2d:24:32:90:e9:e5:8e:9b:8b:94:20:e6:44:cd:
                    b7:7f:fb:21:01:23:4c:db:09:52:6e:90:17:0d:29:
                    d2:13
                Exponent: 65537 (0x10001)
        X509v3 extensions:
            X509v3 Basic Constraints: critical
                CA:FALSE
            X509v3 Subject Key Identifier: 
                79:79:BA:53:D5:40:79:50:68:E9:CD:60:84:31:C8:14:20:70:B0:35
            X509v3 Authority Key Identifier: 
                keyid:1B:47:9A:DE:4E:2C:A1:6A:27:49:48:AB:21:5C:26:AA:7E:12:58:7E

            X509v3 Extended Key Usage: 
                TLS Web Server Authentication, TLS Web Client Authentication
            X509v3 Subject Alternative Name: 
                DNS:www.example.org, DNS:mail.example.org, DNS:mail.example.com, IP Address:127.0.0.1
    Signature Algorithm: sha256WithRSAEncryption
         88:5c:26:09:14:fd:7f:de:f9:f7:ec:f4:49:f3:c3:9c:30:7e:
         51:95:a1:cc:2a:15:1f:0b:4b:ec:5d:5e:0c:ec:ad:b1:94:0e:
         3a:07:c0:56:7e:cc:fd:8f:5e:3a:6e:ba:ef:f4:23:26:48:c0:
         03:ee:7c:b7:cd:78:7d:d1:16:9f:29:14:4a:9e:25:ba:d2:6f:
         77:29:2b:e0:d5:e7:87:32:ac:7f:69:88:9a:99:8a:ef:10:15:
         73:00:16:1e:dd:59:f8:24:8d:3e:c1:53:7f:01:d7:a0:99:31:
         83:96:a6:23:b7:90:3d:25:c1:5b:29:1d:e7:a2:d0:19:79:57:
         bb:1f:b5:c1:4b:d2:69:c4:af:05:9f:d6:04:08:cd:61:9a:ce:
         1b:41:9d:0a:06:d5:20:d9:33:6b:44:65:59:5f:fd:e2:1b:28:
         41:46:18:92:a7:f1:35:bc:7b:33:c9:9b:cd:40:bb:02:65:38:
         2c:5a:20:3c:a1:86:f3:04:cf:6a:dd:c6:e6:fd:21:6f:3a:8e:
         6a:2d:a3:13:1d:54:93:fd:a0:0d:a7:95:da:be:61:95:39:09:
         b9:b9:5f:33:d9:20:c1:97:43:c5:fc:7f:d9:31:df:5f:77:7c:
         09:2b:b9:e5:8c:d7:c6:45:3b:2a:cc:bc:a6:1c:43:8b:ea:a9:
         fc:46:c0:3d
-----BEGIN CERTIFICATE-----
MIIDtDCCApygAwIBAgIBATANBgkqhkiG9w0BAQsFADAeMRwwGgYDVQQDDBNRVUlD
IFNlcnZlciBSb290IENBMB4XDTE3MTEwNzE0MzIwMFoXDTE3MTExMDE0MzIwMFow
ZDELMAkGA1UEBhMCVVMxEzARBgNVBAgMCkNhbGlmb3JuaWExFjAUBgNVBAcMDU1v
dW50YWluIFZpZXcxFDASBgNVBAoMC1FVSUMgU2VydmVyMRIwEAYDVQQDDAkxMjcu
MC4wLjEwggEiMA0GCSqGSIb3DQEBAQUAA4IBDwAwggEKAoIBAQDgQy5rSwSqeN/8
kOeizVzc7y7TqDGF2k3FZjJppSKICAKxEu4agzqbACX8oU4HOm3myTT3hNFcsvT1
2MNk4RqhUVyIYpRmlyejn7ooySnuIFli4TKZr3Td3vpBTxADxupi51ruGe4cSMgf
18QTIaOCHzAssyEBC53TjaXCJnO1qCVCisJEKWLcMZ5I58oo/JEdXf4nAuwBrJ62
DxpVtgLMkFYzeohMVlXAnxmJUvWO4u2JGqZGJbI+9GaKR01Xq0Wdek7o14zlTxFh
e3kq5gnFK3ZBQLqqRGWMUUzkY8lOy34tJDKQ6eWOm4uUIOZEzbd/+yEBI0zbCVJu
kBcNKdITAgMBAAGjgbYwgbMwDAYDVR0TAQH/BAIwADAdBgNVHQ4EFgQUeXm6U9VA
eVBo6c1ghDHIFCBwsDUwHwYDVR0jBBgwFoAUG0ea3k4soWonSUirIVwmqn4SWH4w
HQYDVR0lBBYwFAYIKwYBBQUHAwEGCCsGAQUFBwMCMEQGA1UdEQQ9MDuCD3d3dy5l
eGFtcGxlLm9yZ4IQbWFpbC5leGFtcGxlLm9yZ4IQbWFpbC5leGFtcGxlLmNvbYcE
fwAAATANBgkqhkiG9w0BAQsFAAOCAQEAiFwmCRT9f9759+z0SfPDnDB+UZWhzCoV
HwtL7F1eDOytsZQOOgfAVn7M/Y9eOm667/QjJkjAA+58t814fdEWnykUSp4lutJv
dykr4NXnhzKsf2mImpmK7xAVcwAWHt1Z+CSNPsFTfwHXoJkxg5amI7eQPSXBWykd
56LQGXlXux+1wUvSacSvBZ/WBAjNYZrOG0GdCgbVINkza0RlWV/94hsoQUYYkqfx
Nbx7M8mbzUC7AmU4LFogPKGG8wTPat3G5v0hbzqOai2jEx1Uk/2gDaeV2r5hlTkJ
ublfM9kgwZdDxfx/2THfX3d8CSu55YzXxkU7Ksy8phxDi+qp/EbAPQ==
-----END CERTIFICATE-----
